C51 COMPILER V9.60.0.0   MAIN                                                              04/14/2022 17:38:36 PAGE 1   


C51 COMPILER V9.60.0.0, COMPILATION OF MODULE MAIN
OBJECT MODULE PLACED IN .\build\Debug\src\main.o
COMPILER INVOKED BY: C:\Keil_v5\C51\BIN\C51.exe .\SRC\MAIN.C PRINT(.\build\Debug\src\main.lst) OMF2 TABS(4) CODE NOCOND 
                    -SYMBOLS OPTIMIZE(8,SPEED) SMALL ROM(LARGE) INCDIR(.\..\..\..\..\..\Keil_v5\C51\INC;.\src;.\..\include) DEFINE(__UVISION_
                    -VERSION=526) OBJECT(.\build\Debug\src\main.o)

line level    source

   1          #include "REG52.H"
   2          #include "delay.h"
   3          
   4          /* 74HC595引脚定义 */
   5          sbit SER = P3 ^ 4;  //数据口
   6          sbit SCK = P3 ^ 6;  //上升沿移位
   7          sbit RCK = P3 ^ 5;  //上升沿锁存
   8          
   9          void _74hc595_WriteByte(unsigned char byte) {
  10   1          unsigned char i;
  11   1          for (i = 0; i < 8; i++) {
  12   2              SER = byte & (0x80 >> i);
  13   2              SCK = 1;
  14   2              SCK = 0;
  15   2          }
  16   1          RCK = 1;                                                                                              
             -                                                                                                                        
             -                                                                                                                        
             -         
  17   1          RCK = 0;
  18   1      }
  19          void matrixLED_ShowColumn(unsigned char column, unsigned char mydata){
  20   1          _74hc595_WriteByte(mydata);
  21   1          P0 = ~ (0x80 >> column);
  22   1          delay(1);
  23   1          P0 = 0xFF;
  24   1      }
  25          void main() {
  26   1          P0 = 0x00;
  27   1          SCK = 0;
  28   1          RCK = 0;
  29   1          matrixLED_ShowColumn(7, 0xFF);
  30   1          while (1) {
  31   2              matrixLED_ShowColumn(0, 0x3C);
  32   2              matrixLED_ShowColumn(1, 0x42);
  33   2              matrixLED_ShowColumn(2, 0xA9);
  34   2              matrixLED_ShowColumn(3, 0x85);
  35   2              matrixLED_ShowColumn(4, 0x85);
  36   2              matrixLED_ShowColumn(5, 0xA9);
  37   2              matrixLED_ShowColumn(6, 0x42);
  38   2              matrixLED_ShowColumn(7, 0x3C);
  39   2          }
  40   1      }
C51 COMPILER V9.60.0.0   MAIN                                                              04/14/2022 17:38:36 PAGE 2   

ASSEMBLY LISTING OF GENERATED OBJECT CODE


             ; FUNCTION __74hc595_WriteByte (BEGIN)
                                           ; SOURCE LINE # 9
;---- Variable 'byte' assigned to Register 'R5' ----
0000 AD07              MOV     R5,AR7
                                           ; SOURCE LINE # 11
;---- Variable 'i' assigned to Register 'R3' ----
0002 E4                CLR     A
0003 FB                MOV     R3,A
0004         ?C0001:
0004 EB                MOV     A,R3
0005 C3                CLR     C
0006 9408              SUBB    A,#08H
0008 7480              MOV     A,#080H
000A 9480              SUBB    A,#080H
000C 5023              JNC     ?C0002
                                           ; SOURCE LINE # 12
000E 7E00              MOV     R6,#00H
0010 7480              MOV     A,#080H
0012 A803              MOV     R0,AR3
0014 08                INC     R0
0015 8006              SJMP    ?C0010
0017         ?C0009:
0017 CE                XCH     A,R6
0018 A2E7              MOV     C,ACC.7
001A 13                RRC     A
001B CE                XCH     A,R6
001C 13                RRC     A
001D         ?C0010:
001D D8F8              DJNZ    R0,?C0009
001F FF                MOV     R7,A
0020 ED                MOV     A,R5
0021 F582              MOV     DPL,A
0023 EF                MOV     A,R7
0024 5582              ANL     A,DPL
0026 24FF              ADD     A,#0FFH
0028 92B4              MOV     SER,C
                                           ; SOURCE LINE # 13
002A D2B6              SETB    SCK
                                           ; SOURCE LINE # 14
002C C2B6              CLR     SCK
                                           ; SOURCE LINE # 15
002E 0B                INC     R3
002F 80D3              SJMP    ?C0001
0031         ?C0002:
                                           ; SOURCE LINE # 16
0031 D2B5              SETB    RCK
                                           ; SOURCE LINE # 17
0033 C2B5              CLR     RCK
                                           ; SOURCE LINE # 18
0035 22                RET     
             ; FUNCTION __74hc595_WriteByte (END)

             ; FUNCTION _matrixLED_ShowColumn (BEGIN)
                                           ; SOURCE LINE # 19
;---- Variable 'mydata' assigned to Register 'R6' ----
0000 AE05              MOV     R6,AR5
;---- Variable 'column' assigned to Register 'R4' ----
0002 AC07              MOV     R4,AR7
                                           ; SOURCE LINE # 20
C51 COMPILER V9.60.0.0   MAIN                                                              04/14/2022 17:38:36 PAGE 3   

0004 AF06              MOV     R7,AR6
0006 120000      R     LCALL   __74hc595_WriteByte
                                           ; SOURCE LINE # 21
0009 AF04              MOV     R7,AR4
000B A807              MOV     R0,AR7
000D 7480              MOV     A,#080H
000F 08                INC     R0
0010 8002              SJMP    ?C0012
0012         ?C0011:
0012 C3                CLR     C
0013 13                RRC     A
0014         ?C0012:
0014 D8FC              DJNZ    R0,?C0011
0016 F4                CPL     A
0017 F580              MOV     P0,A
                                           ; SOURCE LINE # 22
0019 7F01              MOV     R7,#01H
001B 7E00              MOV     R6,#00H
001D 120000      E     LCALL   _delay
                                           ; SOURCE LINE # 23
0020 7580FF            MOV     P0,#0FFH
                                           ; SOURCE LINE # 24
0023 22                RET     
             ; FUNCTION _matrixLED_ShowColumn (END)

             ; FUNCTION main (BEGIN)
                                           ; SOURCE LINE # 25
                                           ; SOURCE LINE # 26
0000 E4                CLR     A
0001 F580              MOV     P0,A
                                           ; SOURCE LINE # 27
0003 C2B6              CLR     SCK
                                           ; SOURCE LINE # 28
0005 C2B5              CLR     RCK
                                           ; SOURCE LINE # 29
0007 7DFF              MOV     R5,#0FFH
0009 7F07              MOV     R7,#07H
000B 120000      R     LCALL   _matrixLED_ShowColumn
000E         ?C0006:
                                           ; SOURCE LINE # 30
                                           ; SOURCE LINE # 31
000E 7D3C              MOV     R5,#03CH
0010 E4                CLR     A
0011 FF                MOV     R7,A
0012 120000      R     LCALL   _matrixLED_ShowColumn
                                           ; SOURCE LINE # 32
0015 7D42              MOV     R5,#042H
0017 7F01              MOV     R7,#01H
0019 120000      R     LCALL   _matrixLED_ShowColumn
                                           ; SOURCE LINE # 33
001C 7DA9              MOV     R5,#0A9H
001E 7F02              MOV     R7,#02H
0020 120000      R     LCALL   _matrixLED_ShowColumn
                                           ; SOURCE LINE # 34
0023 7D85              MOV     R5,#085H
0025 7F03              MOV     R7,#03H
0027 120000      R     LCALL   _matrixLED_ShowColumn
                                           ; SOURCE LINE # 35
002A 7D85              MOV     R5,#085H
002C 7F04              MOV     R7,#04H
002E 120000      R     LCALL   _matrixLED_ShowColumn
                                           ; SOURCE LINE # 36
C51 COMPILER V9.60.0.0   MAIN                                                              04/14/2022 17:38:36 PAGE 4   

0031 7DA9              MOV     R5,#0A9H
0033 7F05              MOV     R7,#05H
0035 120000      R     LCALL   _matrixLED_ShowColumn
                                           ; SOURCE LINE # 37
0038 7D42              MOV     R5,#042H
003A 7F06              MOV     R7,#06H
003C 120000      R     LCALL   _matrixLED_ShowColumn
                                           ; SOURCE LINE # 38
003F 7D3C              MOV     R5,#03CH
0041 7F07              MOV     R7,#07H
0043 120000      R     LCALL   _matrixLED_ShowColumn
                                           ; SOURCE LINE # 39
0046 80C6              SJMP    ?C0006
             ; FUNCTION main (END)

C51 COMPILER V9.60.0.0   MAIN                                                              04/14/2022 17:38:36 PAGE 5   

NAME                                    CLASS   MSPACE  TYPE    OFFSET  SIZE
====                                    =====   ======  ====    ======  ====


P0 . . . . . . . . . . . . . . . . . .  SFR      DATA   U_CHAR   0080H  1
P1 . . . . . . . . . . . . . . . . . .  SFR      DATA   U_CHAR   0090H  1
P2 . . . . . . . . . . . . . . . . . .  SFR      DATA   U_CHAR   00A0H  1
P3 . . . . . . . . . . . . . . . . . .  SFR      DATA   U_CHAR   00B0H  1
T0 . . . . . . . . . . . . . . . . . .  ABSBIT   -----  BIT      00B4H  1
AC . . . . . . . . . . . . . . . . . .  ABSBIT   -----  BIT      00D6H  1
T1 . . . . . . . . . . . . . . . . . .  ABSBIT   -----  BIT      00B5H  1
T2 . . . . . . . . . . . . . . . . . .  ABSBIT   -----  BIT      0090H  1
EA . . . . . . . . . . . . . . . . . .  ABSBIT   -----  BIT      00AFH  1
IE . . . . . . . . . . . . . . . . . .  SFR      DATA   U_CHAR   00A8H  1
_delay . . . . . . . . . . . . . . . .  EXTERN   CODE   PROC     -----  -----
EXF2 . . . . . . . . . . . . . . . . .  ABSBIT   -----  BIT      00CEH  1
RD . . . . . . . . . . . . . . . . . .  ABSBIT   -----  BIT      00B7H  1
ES . . . . . . . . . . . . . . . . . .  ABSBIT   -----  BIT      00ACH  1
IP . . . . . . . . . . . . . . . . . .  SFR      DATA   U_CHAR   00B8H  1
RI . . . . . . . . . . . . . . . . . .  ABSBIT   -----  BIT      0098H  1
INT0 . . . . . . . . . . . . . . . . .  ABSBIT   -----  BIT      00B2H  1
CY . . . . . . . . . . . . . . . . . .  ABSBIT   -----  BIT      00D7H  1
TI . . . . . . . . . . . . . . . . . .  ABSBIT   -----  BIT      0099H  1
INT1 . . . . . . . . . . . . . . . . .  ABSBIT   -----  BIT      00B3H  1
RCAP2H . . . . . . . . . . . . . . . .  SFR      DATA   U_CHAR   00CBH  1
PS . . . . . . . . . . . . . . . . . .  ABSBIT   -----  BIT      00BCH  1
SP . . . . . . . . . . . . . . . . . .  SFR      DATA   U_CHAR   0081H  1
T2EX . . . . . . . . . . . . . . . . .  ABSBIT   -----  BIT      0091H  1
OV . . . . . . . . . . . . . . . . . .  ABSBIT   -----  BIT      00D2H  1
RCAP2L . . . . . . . . . . . . . . . .  SFR      DATA   U_CHAR   00CAH  1
main . . . . . . . . . . . . . . . . .  PUBLIC   CODE   PROC     0000H  -----
C_T2 . . . . . . . . . . . . . . . . .  ABSBIT   -----  BIT      00C9H  1
WR . . . . . . . . . . . . . . . . . .  ABSBIT   -----  BIT      00B6H  1
RCLK . . . . . . . . . . . . . . . . .  ABSBIT   -----  BIT      00CDH  1
TCLK . . . . . . . . . . . . . . . . .  ABSBIT   -----  BIT      00CCH  1
P00. . . . . . . . . . . . . . . . . .  ABSBIT   -----  BIT      0080H  1
P10. . . . . . . . . . . . . . . . . .  ABSBIT   -----  BIT      0090H  1
P01. . . . . . . . . . . . . . . . . .  ABSBIT   -----  BIT      0081H  1
SBUF . . . . . . . . . . . . . . . . .  SFR      DATA   U_CHAR   0099H  1
PCON . . . . . . . . . . . . . . . . .  SFR      DATA   U_CHAR   0087H  1
P20. . . . . . . . . . . . . . . . . .  ABSBIT   -----  BIT      00A0H  1
P11. . . . . . . . . . . . . . . . . .  ABSBIT   -----  BIT      0091H  1
P02. . . . . . . . . . . . . . . . . .  ABSBIT   -----  BIT      0082H  1
P30. . . . . . . . . . . . . . . . . .  ABSBIT   -----  BIT      00B0H  1
P21. . . . . . . . . . . . . . . . . .  ABSBIT   -----  BIT      00A1H  1
P12. . . . . . . . . . . . . . . . . .  ABSBIT   -----  BIT      0092H  1
P03. . . . . . . . . . . . . . . . . .  ABSBIT   -----  BIT      0083H  1
P31. . . . . . . . . . . . . . . . . .  ABSBIT   -----  BIT      00B1H  1
P22. . . . . . . . . . . . . . . . . .  ABSBIT   -----  BIT      00A2H  1
P13. . . . . . . . . . . . . . . . . .  ABSBIT   -----  BIT      0093H  1
P04. . . . . . . . . . . . . . . . . .  ABSBIT   -----  BIT      0084H  1
SCON . . . . . . . . . . . . . . . . .  SFR      DATA   U_CHAR   0098H  1
P32. . . . . . . . . . . . . . . . . .  ABSBIT   -----  BIT      00B2H  1
P23. . . . . . . . . . . . . . . . . .  ABSBIT   -----  BIT      00A3H  1
P14. . . . . . . . . . . . . . . . . .  ABSBIT   -----  BIT      0094H  1
P05. . . . . . . . . . . . . . . . . .  ABSBIT   -----  BIT      0085H  1
TMOD . . . . . . . . . . . . . . . . .  SFR      DATA   U_CHAR   0089H  1
TCON . . . . . . . . . . . . . . . . .  SFR      DATA   U_CHAR   0088H  1
P33. . . . . . . . . . . . . . . . . .  ABSBIT   -----  BIT      00B3H  1
P24. . . . . . . . . . . . . . . . . .  ABSBIT   -----  BIT      00A4H  1
P15. . . . . . . . . . . . . . . . . .  ABSBIT   -----  BIT      0095H  1
C51 COMPILER V9.60.0.0   MAIN                                                              04/14/2022 17:38:36 PAGE 6   

NAME                                    CLASS   MSPACE  TYPE    OFFSET  SIZE
====                                    =====   ======  ====    ======  ====


P06. . . . . . . . . . . . . . . . . .  ABSBIT   -----  BIT      0086H  1
P34. . . . . . . . . . . . . . . . . .  ABSBIT   -----  BIT      00B4H  1
P25. . . . . . . . . . . . . . . . . .  ABSBIT   -----  BIT      00A5H  1
P16. . . . . . . . . . . . . . . . . .  ABSBIT   -----  BIT      0096H  1
P07. . . . . . . . . . . . . . . . . .  ABSBIT   -----  BIT      0087H  1
P35. . . . . . . . . . . . . . . . . .  ABSBIT   -----  BIT      00B5H  1
P26. . . . . . . . . . . . . . . . . .  ABSBIT   -----  BIT      00A6H  1
P17. . . . . . . . . . . . . . . . . .  ABSBIT   -----  BIT      0097H  1
P36. . . . . . . . . . . . . . . . . .  ABSBIT   -----  BIT      00B6H  1
P27. . . . . . . . . . . . . . . . . .  ABSBIT   -----  BIT      00A7H  1
P37. . . . . . . . . . . . . . . . . .  ABSBIT   -----  BIT      00B7H  1
IE0. . . . . . . . . . . . . . . . . .  ABSBIT   -----  BIT      0089H  1
IE1. . . . . . . . . . . . . . . . . .  ABSBIT   -----  BIT      008BH  1
__74hc595_WriteByte. . . . . . . . . .  PUBLIC   CODE   PROC     0000H  -----
  byte . . . . . . . . . . . . . . . .  * REG *  DATA   U_CHAR   0005H  1
  i. . . . . . . . . . . . . . . . . .  * REG *  DATA   U_CHAR   0003H  1
B. . . . . . . . . . . . . . . . . . .  SFR      DATA   U_CHAR   00F0H  1
CP_RL2 . . . . . . . . . . . . . . . .  ABSBIT   -----  BIT      00C8H  1
ACC. . . . . . . . . . . . . . . . . .  SFR      DATA   U_CHAR   00E0H  1
ET0. . . . . . . . . . . . . . . . . .  ABSBIT   -----  BIT      00A9H  1
ET1. . . . . . . . . . . . . . . . . .  ABSBIT   -----  BIT      00ABH  1
TF0. . . . . . . . . . . . . . . . . .  ABSBIT   -----  BIT      008DH  1
ET2. . . . . . . . . . . . . . . . . .  ABSBIT   -----  BIT      00ADH  1
TF1. . . . . . . . . . . . . . . . . .  ABSBIT   -----  BIT      008FH  1
TF2. . . . . . . . . . . . . . . . . .  ABSBIT   -----  BIT      00CFH  1
RB8. . . . . . . . . . . . . . . . . .  ABSBIT   -----  BIT      009AH  1
TH0. . . . . . . . . . . . . . . . . .  SFR      DATA   U_CHAR   008CH  1
EX0. . . . . . . . . . . . . . . . . .  ABSBIT   -----  BIT      00A8H  1
IT0. . . . . . . . . . . . . . . . . .  ABSBIT   -----  BIT      0088H  1
TH1. . . . . . . . . . . . . . . . . .  SFR      DATA   U_CHAR   008DH  1
TB8. . . . . . . . . . . . . . . . . .  ABSBIT   -----  BIT      009BH  1
EX1. . . . . . . . . . . . . . . . . .  ABSBIT   -----  BIT      00AAH  1
IT1. . . . . . . . . . . . . . . . . .  ABSBIT   -----  BIT      008AH  1
TH2. . . . . . . . . . . . . . . . . .  SFR      DATA   U_CHAR   00CDH  1
P. . . . . . . . . . . . . . . . . . .  ABSBIT   -----  BIT      00D0H  1
SM0. . . . . . . . . . . . . . . . . .  ABSBIT   -----  BIT      009FH  1
TL0. . . . . . . . . . . . . . . . . .  SFR      DATA   U_CHAR   008AH  1
SM1. . . . . . . . . . . . . . . . . .  ABSBIT   -----  BIT      009EH  1
TL1. . . . . . . . . . . . . . . . . .  SFR      DATA   U_CHAR   008BH  1
SM2. . . . . . . . . . . . . . . . . .  ABSBIT   -----  BIT      009DH  1
TL2. . . . . . . . . . . . . . . . . .  SFR      DATA   U_CHAR   00CCH  1
PT0. . . . . . . . . . . . . . . . . .  ABSBIT   -----  BIT      00B9H  1
PT1. . . . . . . . . . . . . . . . . .  ABSBIT   -----  BIT      00BBH  1
RS0. . . . . . . . . . . . . . . . . .  ABSBIT   -----  BIT      00D3H  1
PT2. . . . . . . . . . . . . . . . . .  ABSBIT   -----  BIT      00BDH  1
TR0. . . . . . . . . . . . . . . . . .  ABSBIT   -----  BIT      008CH  1
RS1. . . . . . . . . . . . . . . . . .  ABSBIT   -----  BIT      00D4H  1
TR1. . . . . . . . . . . . . . . . . .  ABSBIT   -----  BIT      008EH  1
TR2. . . . . . . . . . . . . . . . . .  ABSBIT   -----  BIT      00CAH  1
PX0. . . . . . . . . . . . . . . . . .  ABSBIT   -----  BIT      00B8H  1
PX1. . . . . . . . . . . . . . . . . .  ABSBIT   -----  BIT      00BAH  1
DPH. . . . . . . . . . . . . . . . . .  SFR      DATA   U_CHAR   0083H  1
RCK. . . . . . . . . . . . . . . . . .  ABSBIT   -----  BIT      00B5H  1
DPL. . . . . . . . . . . . . . . . . .  SFR      DATA   U_CHAR   0082H  1
SCK. . . . . . . . . . . . . . . . . .  ABSBIT   -----  BIT      00B6H  1
EXEN2. . . . . . . . . . . . . . . . .  ABSBIT   -----  BIT      00CBH  1
REN. . . . . . . . . . . . . . . . . .  ABSBIT   -----  BIT      009CH  1
C51 COMPILER V9.60.0.0   MAIN                                                              04/14/2022 17:38:36 PAGE 7   

NAME                                    CLASS   MSPACE  TYPE    OFFSET  SIZE
====                                    =====   ======  ====    ======  ====


_matrixLED_ShowColumn. . . . . . . . .  PUBLIC   CODE   PROC     0000H  -----
  column . . . . . . . . . . . . . . .  * REG *  DATA   U_CHAR   0004H  1
  mydata . . . . . . . . . . . . . . .  * REG *  DATA   U_CHAR   0006H  1
T2CON. . . . . . . . . . . . . . . . .  SFR      DATA   U_CHAR   00C8H  1
SER. . . . . . . . . . . . . . . . . .  ABSBIT   -----  BIT      00B4H  1
RXD. . . . . . . . . . . . . . . . . .  ABSBIT   -----  BIT      00B0H  1
TXD. . . . . . . . . . . . . . . . . .  ABSBIT   -----  BIT      00B1H  1
F0 . . . . . . . . . . . . . . . . . .  ABSBIT   -----  BIT      00D5H  1
PSW. . . . . . . . . . . . . . . . . .  SFR      DATA   U_CHAR   00D0H  1


MODULE INFORMATION:   STATIC OVERLAYABLE
   CODE SIZE        =    162    ----
   CONSTANT SIZE    =   ----    ----
   XDATA SIZE       =   ----    ----
   PDATA SIZE       =   ----    ----
   DATA SIZE        =   ----    ----
   IDATA SIZE       =   ----    ----
   BIT SIZE         =   ----    ----
   EDATA SIZE       =   ----    ----
   HDATA SIZE       =   ----    ----
   XDATA CONST SIZE =   ----    ----
   FAR CONST SIZE   =   ----    ----
END OF MODULE INFORMATION.


C51 COMPILATION COMPLETE.  0 WARNING(S),  0 ERROR(S)
